; Function Attrs: nounwind uwtable
define ptr @Aig_ManReduceLaches(ptr noundef %0, i32 noundef %1) local_unnamed_addr #0 {
  %.not = icmp eq i32 %1, 0
  br i1 %.not, label %4, label %3

3:                                                ; preds = %2
  %puts = tail call i32 @puts(ptr nonnull dereferenceable(1) @str.1)
  br label %4

4:                                                ; preds = %3, %2
  %.phi.trans.insert = getelementptr i8, ptr %0, i64 104
  %.val50.i.pre = load i32, ptr %.phi.trans.insert, align 8, !tbaa !42
  br label %5

5:                                                ; preds = %69, %4
  %.val50.i = phi i32 [ %.val50.i.pre, %4 ], [ %71, %69 ]
  %.0 = phi ptr [ %0, %4 ], [ %63, %69 ]
  %6 = getelementptr i8, ptr %.0, i64 140
  %.val55.i = load i32, ptr %6, align 4, !tbaa !41
  %7 = getelementptr i8, ptr %.0, i64 104
  %8 = sub nsw i32 %.val55.i, %.val50.i
  %9 = getelementptr inbounds nuw i8, ptr %.0, i64 24
  %10 = load ptr, ptr %9, align 8, !tbaa !46
  %11 = getelementptr i8, ptr %10, i64 4
  %.val4456.i = load i32, ptr %11, align 4, !tbaa !21
  %12 = icmp slt i32 %8, %.val4456.i
  br i1 %12, label %.lr.ph.preheader.i, label %.critedge2.i

.lr.ph.preheader.i:                               ; preds = %5
  %13 = sext i32 %8 to i64
  br label %.lr.ph.i

.lr.ph.i:                                         ; preds = %37, %.lr.ph.preheader.i
  %indvars.iv.i = phi i64 [ %13, %.lr.ph.preheader.i ], [ %indvars.iv.next.i, %37 ]
  %14 = phi ptr [ %10, %.lr.ph.preheader.i ], [ %38, %37 ]
  %.03858.i = phi i32 [ 0, %.lr.ph.preheader.i ], [ %.1.i, %37 ]
  %15 = getelementptr i8, ptr %14, i64 8
  %.val47.i = load ptr, ptr %15, align 8, !tbaa !37
  %16 = getelementptr inbounds ptr, ptr %.val47.i, i64 %indvars.iv.i
  %17 = load ptr, ptr %16, align 8, !tbaa !38
  %18 = getelementptr i8, ptr %17, i64 8
  %.val52.i = load ptr, ptr %18, align 8, !tbaa !47
  %19 = ptrtoint ptr %.val52.i to i64
  %20 = and i64 %19, -2
  %21 = inttoptr i64 %20 to ptr
  %22 = and i64 %19, 1
  %.not41.i = icmp eq i64 %22, 0
  %23 = getelementptr inbounds nuw i8, ptr %21, i64 24
  %24 = load i64, ptr %23, align 8
  br i1 %.not41.i, label %31, label %25

25:                                               ; preds = %.lr.ph.i
  %26 = and i64 %24, 32
  %.not43.i = icmp eq i64 %26, 0
  br i1 %.not43.i, label %29, label %27

27:                                               ; preds = %25
  %28 = add nsw i32 %.03858.i, 1
  br label %37

29:                                               ; preds = %25
  %30 = or disjoint i64 %24, 32
  store i64 %30, ptr %23, align 8
  br label %37

31:                                               ; preds = %.lr.ph.i
  %32 = and i64 %24, 16
  %.not42.i = icmp eq i64 %32, 0
  br i1 %.not42.i, label %35, label %33

33:                                               ; preds = %31
  %34 = add nsw i32 %.03858.i, 1
  br label %37

35:                                               ; preds = %31
  %36 = or disjoint i64 %24, 16
  store i64 %36, ptr %23, align 8
  br label %37

37:                                               ; preds = %35, %33, %29, %27
  %.1.i = phi i32 [ %28, %27 ], [ %.03858.i, %29 ], [ %34, %33 ], [ %.03858.i, %35 ]
  %indvars.iv.next.i = add nsw i64 %indvars.iv.i, 1
  %38 = load ptr, ptr %9, align 8, !tbaa !46
  %39 = getelementptr i8, ptr %38, i64 4
  %.val44.i = load i32, ptr %39, align 4, !tbaa !21
  %40 = sext i32 %.val44.i to i64
  %41 = icmp slt i64 %indvars.iv.next.i, %40
  br i1 %41, label %.lr.ph.i, label %.critedge2.loopexit.i, !llvm.loop !73

.critedge2.loopexit.i:                            ; preds = %37
  %.val54.pre.i = load i32, ptr %6, align 4, !tbaa !41
  %.val49.pre.i = load i32, ptr %7, align 8, !tbaa !42
  %.pre.i = sub nsw i32 %.val54.pre.i, %.val49.pre.i
  %42 = icmp eq i32 %.1.i, 0
  br label %.critedge2.i

.critedge2.i:                                     ; preds = %.critedge2.loopexit.i, %5
  %.pre-phi.i = phi i32 [ %.pre.i, %.critedge2.loopexit.i ], [ %8, %5 ]
  %.val59.i = phi i32 [ %.val44.i, %.critedge2.loopexit.i ], [ %.val4456.i, %5 ]
  %43 = phi ptr [ %38, %.critedge2.loopexit.i ], [ %10, %5 ]
  %.038.lcssa.i = phi i1 [ %42, %.critedge2.loopexit.i ], [ true, %5 ]
  %44 = icmp slt i32 %.pre-phi.i, %.val59.i
  br i1 %44, label %.lr.ph61.preheader.i, label %Aig_ManReduceLachesCount.exit

.lr.ph61.preheader.i:                             ; preds = %.critedge2.i
  %45 = sext i32 %.pre-phi.i to i64
  br label %.lr.ph61.i

.lr.ph61.i:                                       ; preds = %.lr.ph61.i, %.lr.ph61.preheader.i
  %indvars.iv63.i = phi i64 [ %45, %.lr.ph61.preheader.i ], [ %indvars.iv.next64.i, %.lr.ph61.i ]
  %46 = phi ptr [ %43, %.lr.ph61.preheader.i ], [ %57, %.lr.ph61.i ]
  %47 = getelementptr i8, ptr %46, i64 8
  %.val46.i = load ptr, ptr %47, align 8, !tbaa !37
  %48 = getelementptr inbounds ptr, ptr %.val46.i, i64 %indvars.iv63.i
  %49 = load ptr, ptr %48, align 8, !tbaa !38
  %50 = getelementptr i8, ptr %49, i64 8
  %.val51.i = load ptr, ptr %50, align 8, !tbaa !47
  %51 = ptrtoint ptr %.val51.i to i64
  %52 = and i64 %51, -2
  %53 = inttoptr i64 %52 to ptr
  %54 = getelementptr inbounds nuw i8, ptr %53, i64 24
  %55 = load i64, ptr %54, align 8
  %56 = and i64 %55, -49
  store i64 %56, ptr %54, align 8
  %indvars.iv.next64.i = add nsw i64 %indvars.iv63.i, 1
  %57 = load ptr, ptr %9, align 8, !tbaa !46
  %58 = getelementptr i8, ptr %57, i64 4
  %.val.i = load i32, ptr %58, align 4, !tbaa !21
  %59 = sext i32 %.val.i to i64
  %60 = icmp slt i64 %indvars.iv.next64.i, %59
  br i1 %60, label %.lr.ph61.i, label %Aig_ManReduceLachesCount.exit, !llvm.loop !74

Aig_ManReduceLachesCount.exit:                    ; preds = %.lr.ph61.i, %.critedge2.i
  br i1 %.038.lcssa.i, label %73, label %61

61:                                               ; preds = %Aig_ManReduceLachesCount.exit
  %62 = tail call ptr @Aig_ManReduceLachesOnce(ptr noundef nonnull %.0)
  %63 = tail call ptr @Aig_ManRemap(ptr noundef nonnull %.0, ptr noundef %62)
  %64 = getelementptr inbounds nuw i8, ptr %62, i64 8
  %65 = load ptr, ptr %64, align 8, !tbaa !37
  %.not.i = icmp eq ptr %65, null
  br i1 %.not.i, label %Vec_PtrFree.exit, label %66

66:                                               ; preds = %61
  tail call void @free(ptr noundef nonnull %65) #15
  br label %Vec_PtrFree.exit

Vec_PtrFree.exit:                                 ; preds = %61, %66
  tail call void @free(ptr noundef nonnull %62) #15
  %67 = tail call i32 @Aig_ManSeqCleanup(ptr noundef %63)
  br i1 %.not, label %69, label %68

68:                                               ; preds = %Vec_PtrFree.exit
  tail call void @Aig_ManReportImprovement(ptr noundef nonnull %.0, ptr noundef %63) #15
  br label %69

69:                                               ; preds = %68, %Vec_PtrFree.exit
  tail call void @Aig_ManStop(ptr noundef nonnull %.0) #15
  %70 = getelementptr inbounds nuw i8, ptr %63, i64 104
  %71 = load i32, ptr %70, align 8, !tbaa !42
  %72 = icmp eq i32 %71, 0
  br i1 %72, label %73, label %5, !llvm.loop !78

73:                                               ; preds = %69, %Aig_ManReduceLachesCount.exit
  %.1 = phi ptr [ %63, %69 ], [ %.0, %Aig_ManReduceLachesCount.exit ]
  ret ptr %.1
}